target datalayout = "e-m:e-p270:32:32-p271:32:32-p272:64:64-i64:64-i128:128-f80:128-n8:16:32:64-S128"
target triple = "x86_64-pc-linux-gnu"

%"class.icu_77::UObject" = type { ptr }
%"class.icu_77::UnicodeSet" = type <{ %"class.icu_77::UnicodeFilter", ptr, i32, i32, i8, [7 x i8], ptr, ptr, i32, [4 x i8], ptr, i32, [4 x i8], ptr, ptr, [25 x i32], [4 x i8] }>
%"class.icu_77::UnicodeFilter" = type { %"class.icu_77::UnicodeFunctor", %"class.icu_77::UnicodeMatcher" }
%"class.icu_77::UnicodeFunctor" = type { %"class.icu_77::UObject" }
%"class.icu_77::UnicodeMatcher" = type { ptr }
%"class.icu_77::CheckResult" = type <{ %"class.icu_77::UObject", %"class.icu_77::IcuCApiHelper.1", i32, %"class.icu_77::UnicodeSet", i32, [4 x i8] }>
%"class.icu_77::IcuCApiHelper.1" = type { i32 }

; Function Attrs: mustprogress uwtable
define void @_ZN6icu_7711CheckResult5clearEv(ptr noundef nonnull align 8 dereferenceable(220) %0) #1 align 2 {
  %2 = alloca ptr, align 8
  store ptr %0, ptr %2, align 8, !tbaa !73
  %3 = load ptr, ptr %2, align 8
  %4 = getelementptr inbounds nuw %"class.icu_77::CheckResult", ptr %3, i32 0, i32 2
  store i32 0, ptr %4, align 4, !tbaa !79
  %5 = getelementptr inbounds nuw %"class.icu_77::CheckResult", ptr %3, i32 0, i32 3
  %6 = call noundef nonnull align 8 dereferenceable(200) ptr @_ZN6icu_7710UnicodeSet5clearEv(ptr noundef nonnull align 8 dereferenceable(200) %5)
  %7 = getelementptr inbounds nuw %"class.icu_77::CheckResult", ptr %3, i32 0, i32 4
  store i32 -1, ptr %7, align 8, !tbaa !88
  ret void
}