; Function Attrs: mustprogress uwtable
define void @_ZN6icu_7711CheckResult5clearEv(ptr noundef nonnull align 8 dereferenceable(220) initializes((12, 16)) %0) local_unnamed_addr #1 align 2 {
  %2 = getelementptr inbounds nuw i8, ptr %0, i64 12
  store i32 0, ptr %2, align 4, !tbaa !63
  %3 = getelementptr inbounds nuw i8, ptr %0, i64 16
  %4 = tail call noundef nonnull align 8 dereferenceable(200) ptr @_ZN6icu_7710UnicodeSet5clearEv(ptr noundef nonnull align 8 dereferenceable(200) %3)
  %5 = getelementptr inbounds nuw i8, ptr %0, i64 216
  store i32 -1, ptr %5, align 8, !tbaa !72
  ret void
}